target datalayout = "e-m:e-p270:32:32-p271:32:32-p272:64:64-i64:64-i128:128-f80:128-n8:16:32:64-S128"
target triple = "x86_64-pc-linux-gnu"

@hf_id_num = internal global i32 0, align 4
@hf_report_code = internal global i32 0, align 4
@hf_ha_mode = internal global i32 0, align 4
@hf_ha_time_unit = internal global i32 0, align 4
@hf_machine_states = internal global i32 0, align 4
@hf_state_node = internal global i32 0, align 4
@hf_interface_states = internal global i32 0, align 4
@hf_in_up_num = internal global i32 0, align 4
@hf_in_assumed_up_num = internal global i32 0, align 4
@hf_out_up_num = internal global i32 0, align 4
@hf_out_assumed_up_num = internal global i32 0, align 4
@hf_cluster_last_packet = internal global i32 0, align 4
@ett_cphap = internal global i32 0, align 4
@.str.213 = private unnamed_addr constant [12 x i8] c" (Nodes %d)\00", align 1
@.str.214 = private unnamed_addr constant [14 x i8] c" (Cluster %d)\00", align 1

; Function Attrs: null_pointer_is_valid sspstrong uwtable
define internal i32 @dissect_my_state(ptr noundef %0, i32 noundef %1, ptr noundef %2) #0 {
  %4 = alloca ptr, align 8
  %5 = alloca i32, align 4
  %6 = alloca ptr, align 8
  %7 = alloca i32, align 4
  %8 = alloca ptr, align 8
  %9 = alloca ptr, align 8
  %10 = alloca i16, align 2
  %11 = alloca i16, align 2
  store ptr %0, ptr %4, align 8
  store i32 %1, ptr %5, align 4
  store ptr %2, ptr %6, align 8
  call void @llvm.lifetime.start.p0(i64 4, ptr %7) #3
  call void @llvm.lifetime.start.p0(i64 8, ptr %8) #3
  store ptr null, ptr %8, align 8
  call void @llvm.lifetime.start.p0(i64 8, ptr %9) #3
  store ptr null, ptr %9, align 8
  call void @llvm.lifetime.start.p0(i64 2, ptr %10) #3
  call void @llvm.lifetime.start.p0(i64 2, ptr %11) #3
  %12 = load ptr, ptr %6, align 8
  %13 = load i32, ptr @hf_id_num, align 4
  %14 = load ptr, ptr %4, align 8
  %15 = load i32, ptr %5, align 4
  %16 = call ptr @proto_tree_add_item(ptr noundef %12, i32 noundef %13, ptr noundef %14, i32 noundef %15, i32 noundef 2, i32 noundef 0)
  %17 = load ptr, ptr %4, align 8
  %18 = load i32, ptr %5, align 4
  %19 = call zeroext i16 @tvb_get_ntohs(ptr noundef %17, i32 noundef %18)
  store i16 %19, ptr %11, align 2
  %20 = load i32, ptr %5, align 4
  %21 = add i32 %20, 2
  store i32 %21, ptr %5, align 4
  %22 = load ptr, ptr %6, align 8
  %23 = load i32, ptr @hf_report_code, align 4
  %24 = load ptr, ptr %4, align 8
  %25 = load i32, ptr %5, align 4
  %26 = call ptr @proto_tree_add_item(ptr noundef %22, i32 noundef %23, ptr noundef %24, i32 noundef %25, i32 noundef 2, i32 noundef 0)
  %27 = load ptr, ptr %4, align 8
  %28 = load i32, ptr %5, align 4
  %29 = call zeroext i16 @tvb_get_ntohs(ptr noundef %27, i32 noundef %28)
  store i16 %29, ptr %10, align 2
  %30 = load i32, ptr %5, align 4
  %31 = add i32 %30, 2
  store i32 %31, ptr %5, align 4
  %32 = load ptr, ptr %6, align 8
  %33 = load i32, ptr @hf_ha_mode, align 4
  %34 = load ptr, ptr %4, align 8
  %35 = load i32, ptr %5, align 4
  %36 = call ptr @proto_tree_add_item(ptr noundef %32, i32 noundef %33, ptr noundef %34, i32 noundef %35, i32 noundef 2, i32 noundef 0)
  %37 = load i32, ptr %5, align 4
  %38 = add i32 %37, 2
  store i32 %38, ptr %5, align 4
  %39 = load ptr, ptr %6, align 8
  %40 = load i32, ptr @hf_ha_time_unit, align 4
  %41 = load ptr, ptr %4, align 8
  %42 = load i32, ptr %5, align 4
  %43 = call ptr @proto_tree_add_item(ptr noundef %39, i32 noundef %40, ptr noundef %41, i32 noundef %42, i32 noundef 2, i32 noundef 0)
  %44 = load i32, ptr %5, align 4
  %45 = add i32 %44, 2
  store i32 %45, ptr %5, align 4
  %46 = load i16, ptr %10, align 2
  %47 = zext i16 %46 to i32
  %48 = and i32 %47, 1
  %49 = icmp ne i32 %48, 0
  br i1 %49, label %50, label %80

50:                                               ; preds = %3
  %51 = load ptr, ptr %6, align 8
  %52 = load i32, ptr @hf_machine_states, align 4
  %53 = load ptr, ptr %4, align 8
  %54 = load i32, ptr %5, align 4
  %55 = load i16, ptr %11, align 2
  %56 = zext i16 %55 to i32
  %57 = call ptr @proto_tree_add_item(ptr noundef %51, i32 noundef %52, ptr noundef %53, i32 noundef %54, i32 noundef %56, i32 noundef 0)
  store ptr %57, ptr %8, align 8
  %58 = load ptr, ptr %8, align 8
  %59 = load i32, ptr @ett_cphap, align 4
  %60 = call ptr @proto_item_add_subtree(ptr noundef %58, i32 noundef %59)
  store ptr %60, ptr %9, align 8
  store i32 0, ptr %7, align 4
  br label %61

61:                                               ; preds = %76, %50
  %62 = load i32, ptr %7, align 4
  %63 = load i16, ptr %11, align 2
  %64 = zext i16 %63 to i32
  %65 = icmp slt i32 %62, %64
  br i1 %65, label %66, label %79

66:                                               ; preds = %61
  %67 = load ptr, ptr %9, align 8
  %68 = load i32, ptr @hf_state_node, align 4
  %69 = load ptr, ptr %4, align 8
  %70 = load i32, ptr %5, align 4
  %71 = call ptr @proto_tree_add_item(ptr noundef %67, i32 noundef %68, ptr noundef %69, i32 noundef %70, i32 noundef 1, i32 noundef 0)
  store ptr %71, ptr %8, align 8
  %72 = load ptr, ptr %8, align 8
  %73 = load i32, ptr %7, align 4
  call void (ptr, ptr, ...) @proto_item_append_text(ptr noundef %72, ptr noundef @.str.213, i32 noundef %73)
  %74 = load i32, ptr %5, align 4
  %75 = add i32 %74, 1
  store i32 %75, ptr %5, align 4
  br label %76

76:                                               ; preds = %66
  %77 = load i32, ptr %7, align 4
  %78 = add i32 %77, 1
  store i32 %78, ptr %7, align 4
  br label %61, !llvm.loop !6

79:                                               ; preds = %61
  br label %80

80:                                               ; preds = %79, %3
  %81 = load i16, ptr %10, align 2
  %82 = zext i16 %81 to i32
  %83 = and i32 %82, 2
  %84 = icmp ne i32 %83, 0
  br i1 %84, label %85, label %141

85:                                               ; preds = %80
  %86 = load ptr, ptr %6, align 8
  %87 = load i32, ptr @hf_interface_states, align 4
  %88 = load ptr, ptr %4, align 8
  %89 = load i32, ptr %5, align 4
  %90 = call ptr @proto_tree_add_item(ptr noundef %86, i32 noundef %87, ptr noundef %88, i32 noundef %89, i32 noundef 4, i32 noundef 0)
  store ptr %90, ptr %8, align 8
  %91 = load ptr, ptr %8, align 8
  %92 = load i32, ptr @ett_cphap, align 4
  %93 = call ptr @proto_item_add_subtree(ptr noundef %91, i32 noundef %92)
  store ptr %93, ptr %9, align 8
  %94 = load ptr, ptr %9, align 8
  %95 = load i32, ptr @hf_in_up_num, align 4
  %96 = load ptr, ptr %4, align 8
  %97 = load i32, ptr %5, align 4
  %98 = call ptr @proto_tree_add_item(ptr noundef %94, i32 noundef %95, ptr noundef %96, i32 noundef %97, i32 noundef 1, i32 noundef 0)
  %99 = load i32, ptr %5, align 4
  %100 = add i32 %99, 1
  store i32 %100, ptr %5, align 4
  %101 = load ptr, ptr %9, align 8
  %102 = load i32, ptr @hf_in_assumed_up_num, align 4
  %103 = load ptr, ptr %4, align 8
  %104 = load i32, ptr %5, align 4
  %105 = call ptr @proto_tree_add_item(ptr noundef %101, i32 noundef %102, ptr noundef %103, i32 noundef %104, i32 noundef 1, i32 noundef 0)
  %106 = load i32, ptr %5, align 4
  %107 = add i32 %106, 1
  store i32 %107, ptr %5, align 4
  %108 = load ptr, ptr %9, align 8
  %109 = load i32, ptr @hf_out_up_num, align 4
  %110 = load ptr, ptr %4, align 8
  %111 = load i32, ptr %5, align 4
  %112 = call ptr @proto_tree_add_item(ptr noundef %108, i32 noundef %109, ptr noundef %110, i32 noundef %111, i32 noundef 1, i32 noundef 0)
  %113 = load i32, ptr %5, align 4
  %114 = add i32 %113, 1
  store i32 %114, ptr %5, align 4
  %115 = load ptr, ptr %9, align 8
  %116 = load i32, ptr @hf_out_assumed_up_num, align 4
  %117 = load ptr, ptr %4, align 8
  %118 = load i32, ptr %5, align 4
  %119 = call ptr @proto_tree_add_item(ptr noundef %115, i32 noundef %116, ptr noundef %117, i32 noundef %118, i32 noundef 1, i32 noundef 0)
  %120 = load i32, ptr %5, align 4
  %121 = add i32 %120, 1
  store i32 %121, ptr %5, align 4
  store i32 0, ptr %7, align 4
  br label %122

122:                                              ; preds = %137, %85
  %123 = load i32, ptr %7, align 4
  %124 = load i16, ptr %11, align 2
  %125 = zext i16 %124 to i32
  %126 = icmp slt i32 %123, %125
  br i1 %126, label %127, label %140

127:                                              ; preds = %122
  %128 = load ptr, ptr %6, align 8
  %129 = load i32, ptr @hf_cluster_last_packet, align 4
  %130 = load ptr, ptr %4, align 8
  %131 = load i32, ptr %5, align 4
  %132 = call ptr @proto_tree_add_item(ptr noundef %128, i32 noundef %129, ptr noundef %130, i32 noundef %131, i32 noundef 1, i32 noundef 0)
  %133 = load ptr, ptr %8, align 8
  %134 = load i32, ptr %7, align 4
  call void (ptr, ptr, ...) @proto_item_append_text(ptr noundef %133, ptr noundef @.str.214, i32 noundef %134)
  %135 = load i32, ptr %5, align 4
  %136 = add i32 %135, 1
  store i32 %136, ptr %5, align 4
  br label %137

137:                                              ; preds = %127
  %138 = load i32, ptr %7, align 4
  %139 = add i32 %138, 1
  store i32 %139, ptr %7, align 4
  br label %122, !llvm.loop !8

140:                                              ; preds = %122
  br label %141

141:                                              ; preds = %140, %80
  %142 = load i32, ptr %5, align 4
  call void @llvm.lifetime.end.p0(i64 2, ptr %11) #3
  call void @llvm.lifetime.end.p0(i64 2, ptr %10) #3
  call void @llvm.lifetime.end.p0(i64 8, ptr %9) #3
  call void @llvm.lifetime.end.p0(i64 8, ptr %8) #3
  call void @llvm.lifetime.end.p0(i64 4, ptr %7) #3
  ret i32 %142
}