; Function Attrs: null_pointer_is_valid sspstrong uwtable
define internal fastcc void @dissect_my_state(ptr noundef %0, i32 noundef range(i32 16, 21) %1, ptr noundef %2) unnamed_addr #0 {
  %4 = load i32, ptr @hf_id_num, align 4
  %5 = tail call ptr @proto_tree_add_item(ptr noundef %2, i32 noundef %4, ptr noundef %0, i32 noundef %1, i32 noundef 2, i32 noundef 0)
  %6 = tail call zeroext i16 @tvb_get_ntohs(ptr noundef %0, i32 noundef %1)
  %7 = add nuw nsw i32 %1, 2
  %8 = load i32, ptr @hf_report_code, align 4
  %9 = tail call ptr @proto_tree_add_item(ptr noundef %2, i32 noundef %8, ptr noundef %0, i32 noundef %7, i32 noundef 2, i32 noundef 0)
  %10 = tail call zeroext i16 @tvb_get_ntohs(ptr noundef %0, i32 noundef %7)
  %11 = add nuw nsw i32 %1, 4
  %12 = load i32, ptr @hf_ha_mode, align 4
  %13 = tail call ptr @proto_tree_add_item(ptr noundef %2, i32 noundef %12, ptr noundef %0, i32 noundef %11, i32 noundef 2, i32 noundef 0)
  %14 = add nuw nsw i32 %1, 6
  %15 = load i32, ptr @hf_ha_time_unit, align 4
  %16 = tail call ptr @proto_tree_add_item(ptr noundef %2, i32 noundef %15, ptr noundef %0, i32 noundef %14, i32 noundef 2, i32 noundef 0)
  %17 = or disjoint i32 %1, 8
  %18 = zext i16 %10 to i32
  %19 = and i32 %18, 1
  %.not = icmp eq i32 %19, 0
  br i1 %.not, label %.loopexit68, label %20

20:                                               ; preds = %3
  %21 = load i32, ptr @hf_machine_states, align 4
  %22 = zext i16 %6 to i32
  %23 = tail call ptr @proto_tree_add_item(ptr noundef %2, i32 noundef %21, ptr noundef %0, i32 noundef %17, i32 noundef %22, i32 noundef 0)
  %24 = load i32, ptr @ett_cphap, align 4
  %25 = tail call ptr @proto_item_add_subtree(ptr noundef %23, i32 noundef %24)
  %.not75 = icmp eq i16 %6, 0
  br i1 %.not75, label %.loopexit68, label %.lr.ph

.lr.ph:                                           ; preds = %20, %.lr.ph
  %.170 = phi i32 [ %28, %.lr.ph ], [ %17, %20 ]
  %.06569 = phi i32 [ %29, %.lr.ph ], [ 0, %20 ]
  %26 = load i32, ptr @hf_state_node, align 4
  %27 = tail call ptr @proto_tree_add_item(ptr noundef %25, i32 noundef %26, ptr noundef %0, i32 noundef %.170, i32 noundef 1, i32 noundef 0)
  tail call void (ptr, ptr, ...) @proto_item_append_text(ptr noundef %27, ptr noundef nonnull @.str.213, i32 noundef %.06569)
  %28 = add nuw nsw i32 %.170, 1
  %29 = add nuw nsw i32 %.06569, 1
  %exitcond.not = icmp eq i32 %29, %22
  br i1 %exitcond.not, label %.loopexit68, label %.lr.ph, !llvm.loop !6

.loopexit68:                                      ; preds = %.lr.ph, %20, %3
  %.0 = phi i32 [ %17, %3 ], [ %17, %20 ], [ %28, %.lr.ph ]
  %30 = and i32 %18, 2
  %.not67 = icmp eq i32 %30, 0
  br i1 %.not67, label %.loopexit, label %31

31:                                               ; preds = %.loopexit68
  %32 = load i32, ptr @hf_interface_states, align 4
  %33 = tail call ptr @proto_tree_add_item(ptr noundef %2, i32 noundef %32, ptr noundef %0, i32 noundef %.0, i32 noundef 4, i32 noundef 0)
  %34 = load i32, ptr @ett_cphap, align 4
  %35 = tail call ptr @proto_item_add_subtree(ptr noundef %33, i32 noundef %34)
  %36 = load i32, ptr @hf_in_up_num, align 4
  %37 = tail call ptr @proto_tree_add_item(ptr noundef %35, i32 noundef %36, ptr noundef %0, i32 noundef %.0, i32 noundef 1, i32 noundef 0)
  %38 = add i32 %.0, 1
  %39 = load i32, ptr @hf_in_assumed_up_num, align 4
  %40 = tail call ptr @proto_tree_add_item(ptr noundef %35, i32 noundef %39, ptr noundef %0, i32 noundef %38, i32 noundef 1, i32 noundef 0)
  %41 = add i32 %.0, 2
  %42 = load i32, ptr @hf_out_up_num, align 4
  %43 = tail call ptr @proto_tree_add_item(ptr noundef %35, i32 noundef %42, ptr noundef %0, i32 noundef %41, i32 noundef 1, i32 noundef 0)
  %44 = add i32 %.0, 3
  %45 = load i32, ptr @hf_out_assumed_up_num, align 4
  %46 = tail call ptr @proto_tree_add_item(ptr noundef %35, i32 noundef %45, ptr noundef %0, i32 noundef %44, i32 noundef 1, i32 noundef 0)
  %47 = zext i16 %6 to i32
  %.not76 = icmp eq i16 %6, 0
  br i1 %.not76, label %.loopexit, label %.lr.ph73.preheader

.lr.ph73.preheader:                               ; preds = %31
  %48 = add i32 %.0, 4
  br label %.lr.ph73

.lr.ph73:                                         ; preds = %.lr.ph73.preheader, %.lr.ph73
  %.372 = phi i32 [ %51, %.lr.ph73 ], [ %48, %.lr.ph73.preheader ]
  %.16671 = phi i32 [ %52, %.lr.ph73 ], [ 0, %.lr.ph73.preheader ]
  %49 = load i32, ptr @hf_cluster_last_packet, align 4
  %50 = tail call ptr @proto_tree_add_item(ptr noundef %2, i32 noundef %49, ptr noundef %0, i32 noundef %.372, i32 noundef 1, i32 noundef 0)
  tail call void (ptr, ptr, ...) @proto_item_append_text(ptr noundef %33, ptr noundef nonnull @.str.214, i32 noundef %.16671)
  %51 = add nuw nsw i32 %.372, 1
  %52 = add nuw nsw i32 %.16671, 1
  %exitcond78.not = icmp eq i32 %52, %47
  br i1 %exitcond78.not, label %.loopexit, label %.lr.ph73, !llvm.loop !8

.loopexit:                                        ; preds = %.lr.ph73, %31, %.loopexit68
  ret void
}